target datalayout = "e-m:e-p270:32:32-p271:32:32-p272:64:64-i64:64-i128:128-f80:128-n8:16:32:64-S128"
target triple = "x86_64-pc-linux-gnu"

@.str.134 = private unnamed_addr constant [2 x i8] c"\0A\00", align 1
@.str.137 = private unnamed_addr constant [42 x i8] c"Usage: %s [--mode] [options] [file list]\0A\00", align 1
@.str.138 = private unnamed_addr constant [18 x i8] c"Available modes:\0A\00", align 1
@.str.139 = private unnamed_addr constant [35 x i8] c"   binary, text, remarks, codegen\0A\00", align 1
@.str.140 = private unnamed_addr constant [20 x i8] c"Available options:\0A\00", align 1
@.str.141 = private unnamed_addr constant [43 x i8] c"  -h, --help: Display this usage message.\0A\00", align 1
@.str.142 = private unnamed_addr constant [86 x i8] c"  -O<n>: compile with optimization level n (default 1, n should be between 0 and 2).\0A\00", align 1
@.str.143 = private unnamed_addr constant [79 x i8] c"  -g<n>: compile with debug level n (default 1, n should be between 0 and 2).\0A\00", align 1
@.str.144 = private unnamed_addr constant [89 x i8] c"  --target=<target>: compile code for specific architecture (a64, x64, a64_nf, x64_ms).\0A\00", align 1
@.str.145 = private unnamed_addr constant [73 x i8] c"  --timetrace: record compiler time tracing information into trace.json\0A\00", align 1
@.str.146 = private unnamed_addr constant [91 x i8] c"  --record-stats=<granularity>: granularity of compilation stats (total, file, function).\0A\00", align 1
@.str.147 = private unnamed_addr constant [64 x i8] c"  --bytecode-summary: Compute bytecode operation distribution.\0A\00", align 1
@.str.148 = private unnamed_addr constant [100 x i8] c"  --stats-file=<filename>: file in which compilation stats will be recored (default 'stats.json').\0A\00", align 1
@.str.149 = private unnamed_addr constant [78 x i8] c"  --vector-lib=<name>: name of the library providing vector type operations.\0A\00", align 1
@.str.150 = private unnamed_addr constant [75 x i8] c"  --vector-ctor=<name>: name of the function constructing a vector value.\0A\00", align 1
@.str.151 = private unnamed_addr constant [50 x i8] c"  --vector-type=<name>: name of the vector type.\0A\00", align 1

; Function Attrs: mustprogress uwtable
define internal void @_ZL11displayHelpPKc(ptr noundef %0) #3 {
  %2 = alloca ptr, align 8
  store ptr %0, ptr %2, align 8
  %3 = load ptr, ptr %2, align 8
  %4 = call i32 (ptr, ...) @printf(ptr noundef @.str.137, ptr noundef %3)
  %5 = call i32 (ptr, ...) @printf(ptr noundef @.str.134)
  %6 = call i32 (ptr, ...) @printf(ptr noundef @.str.138)
  %7 = call i32 (ptr, ...) @printf(ptr noundef @.str.139)
  %8 = call i32 (ptr, ...) @printf(ptr noundef @.str.134)
  %9 = call i32 (ptr, ...) @printf(ptr noundef @.str.140)
  %10 = call i32 (ptr, ...) @printf(ptr noundef @.str.141)
  %11 = call i32 (ptr, ...) @printf(ptr noundef @.str.142)
  %12 = call i32 (ptr, ...) @printf(ptr noundef @.str.143)
  %13 = call i32 (ptr, ...) @printf(ptr noundef @.str.144)
  %14 = call i32 (ptr, ...) @printf(ptr noundef @.str.145)
  %15 = call i32 (ptr, ...) @printf(ptr noundef @.str.146)
  %16 = call i32 (ptr, ...) @printf(ptr noundef @.str.147)
  %17 = call i32 (ptr, ...) @printf(ptr noundef @.str.148)
  %18 = call i32 (ptr, ...) @printf(ptr noundef @.str.149)
  %19 = call i32 (ptr, ...) @printf(ptr noundef @.str.150)
  %20 = call i32 (ptr, ...) @printf(ptr noundef @.str.151)
  ret void
}