; Function Attrs: mustprogress nofree norecurse nounwind uwtable
define internal fastcc void @_ZL11displayHelpPKc(ptr noundef %0) unnamed_addr #9 {
  %2 = tail call i32 (ptr, ...) @printf(ptr noundef nonnull dereferenceable(1) @.str.137, ptr noundef %0)
  %putchar = tail call i32 @putchar(i32 10)
  %puts = tail call i32 @puts(ptr nonnull dereferenceable(1) @str)
  %puts1 = tail call i32 @puts(ptr nonnull dereferenceable(1) @str.1)
  %putchar2 = tail call i32 @putchar(i32 10)
  %puts3 = tail call i32 @puts(ptr nonnull dereferenceable(1) @str.2)
  %puts4 = tail call i32 @puts(ptr nonnull dereferenceable(1) @str.3)
  %puts5 = tail call i32 @puts(ptr nonnull dereferenceable(1) @str.4)
  %puts6 = tail call i32 @puts(ptr nonnull dereferenceable(1) @str.5)
  %puts7 = tail call i32 @puts(ptr nonnull dereferenceable(1) @str.6)
  %puts8 = tail call i32 @puts(ptr nonnull dereferenceable(1) @str.7)
  %puts9 = tail call i32 @puts(ptr nonnull dereferenceable(1) @str.8)
  %puts10 = tail call i32 @puts(ptr nonnull dereferenceable(1) @str.9)
  %puts11 = tail call i32 @puts(ptr nonnull dereferenceable(1) @str.10)
  %puts12 = tail call i32 @puts(ptr nonnull dereferenceable(1) @str.11)
  %puts13 = tail call i32 @puts(ptr nonnull dereferenceable(1) @str.12)
  %puts14 = tail call i32 @puts(ptr nonnull dereferenceable(1) @str.13)
  ret void
}